	.section	__TEXT,__text,regular,pure_instructions
	.build_version macos, 14, 0	sdk_version 15, 2
	.globl	_preprocessor_t4_int8_m6400_k3200_n1_b2
	.p2align	2
_preprocessor_t4_int8_m6400_k3200_n1_b2:
Lfunc_begin0:
	.file	1 "." "IRModule.CodeGenLLVM"
	.loc	1 0 0
	.cfi_startproc
	stp	x29, x30, [sp, #-16]!
	.cfi_def_cfa_offset 16
	.cfi_offset w30, -8
	.cfi_offset w29, -16
Ltmp0:
	cmp	w2, #4
	b.ne	LBB0_68
Ltmp1:
	cbz	x0, LBB0_69
Ltmp2:
	cbz	x1, LBB0_70
Ltmp3:
	ldr	w8, [x1]
Ltmp4:
	cmp	w8, #13
	mov	w9, #1
	lsl	w8, w9, w8
Ltmp5:
	mov	w9, #8344
	and	w8, w8, w9
	ccmp	w8, #0, #4, ls
	b.eq	LBB0_64
Ltmp6:
	ldr	w8, [x1, #4]
Ltmp7:
	cmp	w8, #13
	b.hi	LBB0_65
Ltmp8:
	mov	w9, #1
	lsl	w8, w9, w8
Ltmp9:
	mov	w9, #8344
	tst	w8, w9
	b.eq	LBB0_65
Ltmp10:
	ldr	w8, [x1, #8]
Ltmp11:
	cmp	w8, #13
	b.hi	LBB0_66
Ltmp12:
	mov	w9, #1
	lsl	w8, w9, w8
Ltmp13:
	mov	w9, #8344
	tst	w8, w9
	b.eq	LBB0_66
Ltmp14:
	ldr	w8, [x1, #12]
Ltmp15:
	cmp	w8, #13
	b.hi	LBB0_67
Ltmp16:
	mov	w9, #1
	lsl	w8, w9, w8
Ltmp17:
	mov	w9, #8344
	tst	w8, w9
	b.eq	LBB0_67
Ltmp18:
	ldr	x16, [x0]
Ltmp19:
	cbz	x16, LBB0_71
Ltmp20:
	ldr	w8, [x16, #16]
	cmp	w8, #2
	b.ne	LBB0_72
Ltmp21:
	ldr	x13, [x0, #8]
Ltmp22:
	cbz	x13, LBB0_73
Ltmp23:
	ldr	w8, [x13, #16]
	cmp	w8, #2
	b.ne	LBB0_74
Ltmp24:
	ldr	x10, [x0, #16]
Ltmp25:
	cbz	x10, LBB0_75
Ltmp26:
	ldr	w8, [x10, #16]
	cmp	w8, #2
	b.ne	LBB0_76
Ltmp27:
	ldr	x8, [x0, #24]
Ltmp28:
	cbz	x8, LBB0_77
Ltmp29:
	ldr	w9, [x8, #16]
	cmp	w9, #3
	b.ne	LBB0_78
Ltmp30:
	ldrb	w9, [x16, #20]
	cmp	w9, #2
	b.ne	LBB0_79
Ltmp31:
	ldrb	w9, [x16, #21]
	cmp	w9, #16
	b.ne	LBB0_79
Ltmp32:
	ldrh	w9, [x16, #22]
	cmp	w9, #1
	b.ne	LBB0_79
Ltmp33:
	ldr	x9, [x16, #24]
Ltmp34:
	ldr	w11, [x9]
	cmp	w11, #1
	b.ne	LBB0_80
Ltmp35:
	ldr	w9, [x9, #8]
Ltmp36:
	cmp	w9, #3200
	b.ne	LBB0_81
Ltmp37:
	ldr	x5, [x16, #32]
Ltmp38:
	ldr	w9, [x16, #12]
Ltmp39:
	ldr	x1, [x16]
Ltmp40:
	ldp	x4, x17, [x13, #24]
Ltmp41:
	ldr	x0, [x13]
Ltmp42:
	ldp	x15, x14, [x10, #24]
Ltmp43:
	ldr	x3, [x10]
Ltmp44:
	ldp	x12, x11, [x8, #24]
Ltmp45:
	ldr	x2, [x8]
Ltmp46:
	cbz	x5, LBB0_25
Ltmp47:
	ldr	w5, [x5, #8]
Ltmp48:
	cmp	w5, #1
	b.ne	LBB0_82
Ltmp49:
LBB0_25:
	ldr	x5, [x16, #40]
	cbnz	x5, LBB0_83
Ltmp50:
	ldr	w16, [x16, #8]
Ltmp51:
	cmp	w16, #1
	b.ne	LBB0_84
Ltmp52:
	cbz	x1, LBB0_85
Ltmp53:
	ldrb	w16, [x13, #20]
	cmp	w16, #2
	b.ne	LBB0_86
Ltmp54:
	ldrb	w16, [x13, #21]
	cmp	w16, #16
	b.ne	LBB0_86
Ltmp55:
	ldrh	w16, [x13, #22]
	cmp	w16, #1
	b.ne	LBB0_86
Ltmp56:
	ldr	w16, [x4]
	cmp	w16, #1
	b.ne	LBB0_87
Ltmp57:
	ldr	w16, [x4, #8]
	cmp	w16, #50
	b.ne	LBB0_88
Ltmp58:
	cbz	x17, LBB0_35
Ltmp59:
	ldr	w16, [x17, #8]
	cmp	w16, #1
	b.ne	LBB0_89
Ltmp60:
LBB0_35:
	ldr	x16, [x13, #40]
	cbnz	x16, LBB0_90
Ltmp61:
	ldr	w16, [x13, #8]
	cmp	w16, #1
	b.ne	LBB0_91
Ltmp62:
	ldr	w13, [x13, #12]
Ltmp63:
	cmp	w9, w13
	b.ne	LBB0_92
Ltmp64:
	cbz	x0, LBB0_93
Ltmp65:
	ldrb	w13, [x10, #20]
	cmp	w13, #2
	b.ne	LBB0_94
Ltmp66:
	ldrb	w13, [x10, #21]
	cmp	w13, #16
	b.ne	LBB0_94
Ltmp67:
	ldrh	w13, [x10, #22]
	cmp	w13, #1
	b.ne	LBB0_94
Ltmp68:
	ldr	w13, [x15]
	cmp	w13, #1
	b.ne	LBB0_95
Ltmp69:
	ldr	w13, [x15, #8]
	cmp	w13, #50
	b.ne	LBB0_96
Ltmp70:
	cbz	x14, LBB0_46
Ltmp71:
	ldr	w13, [x14, #8]
	cmp	w13, #1
	b.ne	LBB0_97
Ltmp72:
LBB0_46:
	ldr	x13, [x10, #40]
	cbnz	x13, LBB0_98
Ltmp73:
	ldr	w13, [x10, #8]
	cmp	w13, #1
	b.ne	LBB0_99
Ltmp74:
	ldr	w10, [x10, #12]
Ltmp75:
	cmp	w9, w10
	b.ne	LBB0_100
Ltmp76:
	cbz	x3, LBB0_101
Ltmp77:
	ldrb	w10, [x8, #20]
	cbnz	w10, LBB0_102
Ltmp78:
	ldrb	w10, [x8, #21]
	cmp	w10, #8
	b.ne	LBB0_102
Ltmp79:
	ldrh	w10, [x8, #22]
	cmp	w10, #1
	b.ne	LBB0_102
Ltmp80:
	ldr	w10, [x12]
	cmp	w10, #1
	b.ne	LBB0_103
Ltmp81:
	ldr	w10, [x12, #8]
	cmp	w10, #800
	b.ne	LBB0_104
Ltmp82:
	ldr	w10, [x12, #16]
	cmp	w10, #16
	b.ne	LBB0_105
Ltmp83:
	cbz	x11, LBB0_59
Ltmp84:
	ldr	w10, [x11, #16]
	cmp	w10, #1
	b.ne	LBB0_106
Ltmp85:
	ldr	w10, [x11, #8]
	cmp	x10, #16
	b.ne	LBB0_106
Ltmp86:
LBB0_59:
	ldr	x10, [x8, #40]
	cbnz	x10, LBB0_107
Ltmp87:
	ldr	w10, [x8, #8]
	cmp	w10, #1
	b.ne	LBB0_108
Ltmp88:
	ldr	w8, [x8, #12]
Ltmp89:
	cmp	w9, w8
	b.ne	LBB0_109
Ltmp90:
	cbz	x2, LBB0_110
Ltmp91:
	bl	_preprocessor_t4_int8_m6400_k3200_n1_b2_compute_
Ltmp92:
	mov	w0, #0
	ldp	x29, x30, [sp], #16
	ret
Ltmp93:
LBB0_64:
Lloh0:
	adrp	x8, ___TVMAPISetLastError@GOTPAGE
Lloh1:
	ldr	x8, [x8, ___TVMAPISetLastError@GOTPAGEOFF]
Lloh2:
	ldr	x8, [x8]
Lloh3:
	adrp	x0, l_.str.3@PAGE
Ltmp94:
Lloh4:
	add	x0, x0, l_.str.3@PAGEOFF
	blr	x8
Ltmp95:
	mov	w0, #-1
	ldp	x29, x30, [sp], #16
	ret
Ltmp96:
LBB0_65:
Lloh5:
	adrp	x8, ___TVMAPISetLastError@GOTPAGE
Lloh6:
	ldr	x8, [x8, ___TVMAPISetLastError@GOTPAGEOFF]
Lloh7:
	ldr	x8, [x8]
Lloh8:
	adrp	x0, l_.str.4@PAGE
Ltmp97:
Lloh9:
	add	x0, x0, l_.str.4@PAGEOFF
	blr	x8
Ltmp98:
	mov	w0, #-1
	ldp	x29, x30, [sp], #16
	ret
Ltmp99:
LBB0_66:
Lloh10:
	adrp	x8, ___TVMAPISetLastError@GOTPAGE
Lloh11:
	ldr	x8, [x8, ___TVMAPISetLastError@GOTPAGEOFF]
Lloh12:
	ldr	x8, [x8]
Lloh13:
	adrp	x0, l_.str.5@PAGE
Ltmp100:
Lloh14:
	add	x0, x0, l_.str.5@PAGEOFF
	blr	x8
Ltmp101:
	mov	w0, #-1
	ldp	x29, x30, [sp], #16
	ret
Ltmp102:
LBB0_67:
Lloh15:
	adrp	x8, ___TVMAPISetLastError@GOTPAGE
Lloh16:
	ldr	x8, [x8, ___TVMAPISetLastError@GOTPAGEOFF]
Lloh17:
	ldr	x8, [x8]
Lloh18:
	adrp	x0, l_.str.6@PAGE
Ltmp103:
Lloh19:
	add	x0, x0, l_.str.6@PAGEOFF
	blr	x8
Ltmp104:
	mov	w0, #-1
	ldp	x29, x30, [sp], #16
	ret
Ltmp105:
LBB0_68:
Lloh20:
	adrp	x8, ___TVMAPISetLastError@GOTPAGE
Lloh21:
	ldr	x8, [x8, ___TVMAPISetLastError@GOTPAGEOFF]
Lloh22:
	ldr	x8, [x8]
Lloh23:
	adrp	x0, l_.str@PAGE
Ltmp106:
Lloh24:
	add	x0, x0, l_.str@PAGEOFF
	blr	x8
Ltmp107:
	mov	w0, #-1
	ldp	x29, x30, [sp], #16
	ret
Ltmp108:
LBB0_69:
Lloh25:
	adrp	x8, ___TVMAPISetLastError@GOTPAGE
Lloh26:
	ldr	x8, [x8, ___TVMAPISetLastError@GOTPAGEOFF]
Lloh27:
	ldr	x8, [x8]
Lloh28:
	adrp	x0, l_.str.1@PAGE
Ltmp109:
Lloh29:
	add	x0, x0, l_.str.1@PAGEOFF
	blr	x8
Ltmp110:
	mov	w0, #-1
	ldp	x29, x30, [sp], #16
	ret
Ltmp111:
LBB0_70:
Lloh30:
	adrp	x8, ___TVMAPISetLastError@GOTPAGE
Lloh31:
	ldr	x8, [x8, ___TVMAPISetLastError@GOTPAGEOFF]
Lloh32:
	ldr	x8, [x8]
Lloh33:
	adrp	x0, l_.str.2@PAGE
Ltmp112:
Lloh34:
	add	x0, x0, l_.str.2@PAGEOFF
	blr	x8
Ltmp113:
	mov	w0, #-1
	ldp	x29, x30, [sp], #16
	ret
Ltmp114:
LBB0_71:
Lloh35:
	adrp	x8, ___TVMAPISetLastError@GOTPAGE
Lloh36:
	ldr	x8, [x8, ___TVMAPISetLastError@GOTPAGEOFF]
Lloh37:
	ldr	x8, [x8]
Lloh38:
	adrp	x0, l_.str.7@PAGE
Ltmp115:
Lloh39:
	add	x0, x0, l_.str.7@PAGEOFF
	blr	x8
Ltmp116:
	mov	w0, #-1
	ldp	x29, x30, [sp], #16
	ret
Ltmp117:
LBB0_72:
Lloh40:
	adrp	x8, ___TVMAPISetLastError@GOTPAGE
Lloh41:
	ldr	x8, [x8, ___TVMAPISetLastError@GOTPAGEOFF]
Lloh42:
	ldr	x8, [x8]
Lloh43:
	adrp	x0, l_.str.8@PAGE
Ltmp118:
Lloh44:
	add	x0, x0, l_.str.8@PAGEOFF
	blr	x8
Ltmp119:
	mov	w0, #-1
	ldp	x29, x30, [sp], #16
	ret
Ltmp120:
LBB0_73:
Lloh45:
	adrp	x8, ___TVMAPISetLastError@GOTPAGE
Lloh46:
	ldr	x8, [x8, ___TVMAPISetLastError@GOTPAGEOFF]
Lloh47:
	ldr	x8, [x8]
Lloh48:
	adrp	x0, l_.str.9@PAGE
Ltmp121:
Lloh49:
	add	x0, x0, l_.str.9@PAGEOFF
	blr	x8
Ltmp122:
	mov	w0, #-1
	ldp	x29, x30, [sp], #16
	ret
Ltmp123:
LBB0_74:
Lloh50:
	adrp	x8, ___TVMAPISetLastError@GOTPAGE
Lloh51:
	ldr	x8, [x8, ___TVMAPISetLastError@GOTPAGEOFF]
Lloh52:
	ldr	x8, [x8]
Lloh53:
	adrp	x0, l_.str.10@PAGE
Ltmp124:
Lloh54:
	add	x0, x0, l_.str.10@PAGEOFF
	blr	x8
Ltmp125:
	mov	w0, #-1
	ldp	x29, x30, [sp], #16
	ret
Ltmp126:
LBB0_75:
Lloh55:
	adrp	x8, ___TVMAPISetLastError@GOTPAGE
Lloh56:
	ldr	x8, [x8, ___TVMAPISetLastError@GOTPAGEOFF]
Lloh57:
	ldr	x8, [x8]
Lloh58:
	adrp	x0, l_.str.11@PAGE
Ltmp127:
Lloh59:
	add	x0, x0, l_.str.11@PAGEOFF
	blr	x8
Ltmp128:
	mov	w0, #-1
	ldp	x29, x30, [sp], #16
	ret
Ltmp129:
LBB0_76:
Lloh60:
	adrp	x8, ___TVMAPISetLastError@GOTPAGE
Lloh61:
	ldr	x8, [x8, ___TVMAPISetLastError@GOTPAGEOFF]
Lloh62:
	ldr	x8, [x8]
Lloh63:
	adrp	x0, l_.str.12@PAGE
Ltmp130:
Lloh64:
	add	x0, x0, l_.str.12@PAGEOFF
	blr	x8
Ltmp131:
	mov	w0, #-1
	ldp	x29, x30, [sp], #16
	ret
Ltmp132:
LBB0_77:
Lloh65:
	adrp	x8, ___TVMAPISetLastError@GOTPAGE
Ltmp133:
Lloh66:
	ldr	x8, [x8, ___TVMAPISetLastError@GOTPAGEOFF]
Lloh67:
	ldr	x8, [x8]
Lloh68:
	adrp	x0, l_.str.13@PAGE
Ltmp134:
Lloh69:
	add	x0, x0, l_.str.13@PAGEOFF
	blr	x8
Ltmp135:
	mov	w0, #-1
	ldp	x29, x30, [sp], #16
	ret
Ltmp136:
LBB0_78:
Lloh70:
	adrp	x8, ___TVMAPISetLastError@GOTPAGE
Ltmp137:
Lloh71:
	ldr	x8, [x8, ___TVMAPISetLastError@GOTPAGEOFF]
Lloh72:
	ldr	x8, [x8]
Lloh73:
	adrp	x0, l_.str.14@PAGE
Ltmp138:
Lloh74:
	add	x0, x0, l_.str.14@PAGEOFF
	blr	x8
Ltmp139:
	mov	w0, #-1
	ldp	x29, x30, [sp], #16
	ret
Ltmp140:
LBB0_79:
Lloh75:
	adrp	x8, ___TVMAPISetLastError@GOTPAGE
Ltmp141:
Lloh76:
	ldr	x8, [x8, ___TVMAPISetLastError@GOTPAGEOFF]
Lloh77:
	ldr	x8, [x8]
Lloh78:
	adrp	x0, l_.str.15@PAGE
Ltmp142:
Lloh79:
	add	x0, x0, l_.str.15@PAGEOFF
	blr	x8
Ltmp143:
	mov	w0, #-1
	ldp	x29, x30, [sp], #16
	ret
Ltmp144:
LBB0_80:
Lloh80:
	adrp	x8, ___TVMAPISetLastError@GOTPAGE
Ltmp145:
Lloh81:
	ldr	x8, [x8, ___TVMAPISetLastError@GOTPAGEOFF]
Lloh82:
	ldr	x8, [x8]
Lloh83:
	adrp	x0, l_.str.16@PAGE
Ltmp146:
Lloh84:
	add	x0, x0, l_.str.16@PAGEOFF
	blr	x8
Ltmp147:
	mov	w0, #-1
	ldp	x29, x30, [sp], #16
	ret
Ltmp148:
LBB0_81:
Lloh85:
	adrp	x8, ___TVMAPISetLastError@GOTPAGE
Ltmp149:
Lloh86:
	ldr	x8, [x8, ___TVMAPISetLastError@GOTPAGEOFF]
Lloh87:
	ldr	x8, [x8]
Lloh88:
	adrp	x0, l_.str.17@PAGE
Ltmp150:
Lloh89:
	add	x0, x0, l_.str.17@PAGEOFF
	blr	x8
Ltmp151:
	mov	w0, #-1
	ldp	x29, x30, [sp], #16
	ret
Ltmp152:
LBB0_82:
Lloh90:
	adrp	x8, ___TVMAPISetLastError@GOTPAGE
Ltmp153:
Lloh91:
	ldr	x8, [x8, ___TVMAPISetLastError@GOTPAGEOFF]
Lloh92:
	ldr	x8, [x8]
Lloh93:
	adrp	x0, l_.str.18@PAGE
Ltmp154:
Lloh94:
	add	x0, x0, l_.str.18@PAGEOFF
	blr	x8
Ltmp155:
	mov	w0, #-1
	ldp	x29, x30, [sp], #16
	ret
Ltmp156:
LBB0_83:
Lloh95:
	adrp	x8, ___TVMAPISetLastError@GOTPAGE
Ltmp157:
Lloh96:
	ldr	x8, [x8, ___TVMAPISetLastError@GOTPAGEOFF]
Lloh97:
	ldr	x8, [x8]
Lloh98:
	adrp	x0, l_.str.19@PAGE
Ltmp158:
Lloh99:
	add	x0, x0, l_.str.19@PAGEOFF
	blr	x8
Ltmp159:
	mov	w0, #-1
	ldp	x29, x30, [sp], #16
	ret
Ltmp160:
LBB0_84:
Lloh100:
	adrp	x8, ___TVMAPISetLastError@GOTPAGE
Ltmp161:
Lloh101:
	ldr	x8, [x8, ___TVMAPISetLastError@GOTPAGEOFF]
Lloh102:
	ldr	x8, [x8]
Lloh103:
	adrp	x0, l_.str.20@PAGE
Ltmp162:
Lloh104:
	add	x0, x0, l_.str.20@PAGEOFF
	blr	x8
Ltmp163:
	mov	w0, #-1
	ldp	x29, x30, [sp], #16
	ret
Ltmp164:
LBB0_85:
Lloh105:
	adrp	x8, ___TVMAPISetLastError@GOTPAGE
Ltmp165:
Lloh106:
	ldr	x8, [x8, ___TVMAPISetLastError@GOTPAGEOFF]
Lloh107:
	ldr	x8, [x8]
Lloh108:
	adrp	x0, l_.str.21@PAGE
Ltmp166:
Lloh109:
	add	x0, x0, l_.str.21@PAGEOFF
	blr	x8
Ltmp167:
	mov	w0, #-1
	ldp	x29, x30, [sp], #16
	ret
Ltmp168:
LBB0_86:
Lloh110:
	adrp	x8, ___TVMAPISetLastError@GOTPAGE
Ltmp169:
Lloh111:
	ldr	x8, [x8, ___TVMAPISetLastError@GOTPAGEOFF]
Lloh112:
	ldr	x8, [x8]
Lloh113:
	adrp	x0, l_.str.22@PAGE
Ltmp170:
Lloh114:
	add	x0, x0, l_.str.22@PAGEOFF
	blr	x8
Ltmp171:
	mov	w0, #-1
	ldp	x29, x30, [sp], #16
	ret
Ltmp172:
LBB0_87:
Lloh115:
	adrp	x8, ___TVMAPISetLastError@GOTPAGE
Ltmp173:
Lloh116:
	ldr	x8, [x8, ___TVMAPISetLastError@GOTPAGEOFF]
Lloh117:
	ldr	x8, [x8]
Lloh118:
	adrp	x0, l_.str.23@PAGE
Ltmp174:
Lloh119:
	add	x0, x0, l_.str.23@PAGEOFF
	blr	x8
Ltmp175:
	mov	w0, #-1
	ldp	x29, x30, [sp], #16
	ret
Ltmp176:
LBB0_88:
Lloh120:
	adrp	x8, ___TVMAPISetLastError@GOTPAGE
Ltmp177:
Lloh121:
	ldr	x8, [x8, ___TVMAPISetLastError@GOTPAGEOFF]
Lloh122:
	ldr	x8, [x8]
Lloh123:
	adrp	x0, l_.str.24@PAGE
Ltmp178:
Lloh124:
	add	x0, x0, l_.str.24@PAGEOFF
	blr	x8
Ltmp179:
	mov	w0, #-1
	ldp	x29, x30, [sp], #16
	ret
Ltmp180:
LBB0_89:
Lloh125:
	adrp	x8, ___TVMAPISetLastError@GOTPAGE
Ltmp181:
Lloh126:
	ldr	x8, [x8, ___TVMAPISetLastError@GOTPAGEOFF]
Lloh127:
	ldr	x8, [x8]
Lloh128:
	adrp	x0, l_.str.25@PAGE
Ltmp182:
Lloh129:
	add	x0, x0, l_.str.25@PAGEOFF
	blr	x8
Ltmp183:
	mov	w0, #-1
	ldp	x29, x30, [sp], #16
	ret
Ltmp184:
LBB0_90:
Lloh130:
	adrp	x8, ___TVMAPISetLastError@GOTPAGE
Ltmp185:
Lloh131:
	ldr	x8, [x8, ___TVMAPISetLastError@GOTPAGEOFF]
Lloh132:
	ldr	x8, [x8]
Lloh133:
	adrp	x0, l_.str.26@PAGE
Ltmp186:
Lloh134:
	add	x0, x0, l_.str.26@PAGEOFF
	blr	x8
Ltmp187:
	mov	w0, #-1
	ldp	x29, x30, [sp], #16
	ret
Ltmp188:
LBB0_91:
Lloh135:
	adrp	x8, ___TVMAPISetLastError@GOTPAGE
Ltmp189:
Lloh136:
	ldr	x8, [x8, ___TVMAPISetLastError@GOTPAGEOFF]
Lloh137:
	ldr	x8, [x8]
Lloh138:
	adrp	x0, l_.str.27@PAGE
Ltmp190:
Lloh139:
	add	x0, x0, l_.str.27@PAGEOFF
	blr	x8
Ltmp191:
	mov	w0, #-1
	ldp	x29, x30, [sp], #16
	ret
Ltmp192:
LBB0_92:
Lloh140:
	adrp	x8, ___TVMAPISetLastError@GOTPAGE
Ltmp193:
Lloh141:
	ldr	x8, [x8, ___TVMAPISetLastError@GOTPAGEOFF]
Lloh142:
	ldr	x8, [x8]
Lloh143:
	adrp	x0, l_.str.28@PAGE
Ltmp194:
Lloh144:
	add	x0, x0, l_.str.28@PAGEOFF
	blr	x8
Ltmp195:
	mov	w0, #-1
	ldp	x29, x30, [sp], #16
	ret
Ltmp196:
LBB0_93:
Lloh145:
	adrp	x8, ___TVMAPISetLastError@GOTPAGE
Ltmp197:
Lloh146:
	ldr	x8, [x8, ___TVMAPISetLastError@GOTPAGEOFF]
Lloh147:
	ldr	x8, [x8]
Lloh148:
	adrp	x0, l_.str.29@PAGE
Ltmp198:
Lloh149:
	add	x0, x0, l_.str.29@PAGEOFF
	blr	x8
Ltmp199:
	mov	w0, #-1
	ldp	x29, x30, [sp], #16
	ret
Ltmp200:
LBB0_94:
Lloh150:
	adrp	x8, ___TVMAPISetLastError@GOTPAGE
Ltmp201:
Lloh151:
	ldr	x8, [x8, ___TVMAPISetLastError@GOTPAGEOFF]
Lloh152:
	ldr	x8, [x8]
Lloh153:
	adrp	x0, l_.str.30@PAGE
Ltmp202:
Lloh154:
	add	x0, x0, l_.str.30@PAGEOFF
	blr	x8
Ltmp203:
	mov	w0, #-1
	ldp	x29, x30, [sp], #16
	ret
Ltmp204:
LBB0_95:
Lloh155:
	adrp	x8, ___TVMAPISetLastError@GOTPAGE
Ltmp205:
Lloh156:
	ldr	x8, [x8, ___TVMAPISetLastError@GOTPAGEOFF]
Lloh157:
	ldr	x8, [x8]
Lloh158:
	adrp	x0, l_.str.31@PAGE
Ltmp206:
Lloh159:
	add	x0, x0, l_.str.31@PAGEOFF
	blr	x8
Ltmp207:
	mov	w0, #-1
	ldp	x29, x30, [sp], #16
	ret
Ltmp208:
LBB0_96:
Lloh160:
	adrp	x8, ___TVMAPISetLastError@GOTPAGE
Ltmp209:
Lloh161:
	ldr	x8, [x8, ___TVMAPISetLastError@GOTPAGEOFF]
Lloh162:
	ldr	x8, [x8]
Lloh163:
	adrp	x0, l_.str.32@PAGE
Ltmp210:
Lloh164:
	add	x0, x0, l_.str.32@PAGEOFF
	blr	x8
Ltmp211:
	mov	w0, #-1
	ldp	x29, x30, [sp], #16
	ret
Ltmp212:
LBB0_97:
Lloh165:
	adrp	x8, ___TVMAPISetLastError@GOTPAGE
Ltmp213:
Lloh166:
	ldr	x8, [x8, ___TVMAPISetLastError@GOTPAGEOFF]
Lloh167:
	ldr	x8, [x8]
Lloh168:
	adrp	x0, l_.str.33@PAGE
Ltmp214:
Lloh169:
	add	x0, x0, l_.str.33@PAGEOFF
	blr	x8
Ltmp215:
	mov	w0, #-1
	ldp	x29, x30, [sp], #16
	ret
Ltmp216:
LBB0_98:
Lloh170:
	adrp	x8, ___TVMAPISetLastError@GOTPAGE
Ltmp217:
Lloh171:
	ldr	x8, [x8, ___TVMAPISetLastError@GOTPAGEOFF]
Lloh172:
	ldr	x8, [x8]
Lloh173:
	adrp	x0, l_.str.34@PAGE
Ltmp218:
Lloh174:
	add	x0, x0, l_.str.34@PAGEOFF
	blr	x8
Ltmp219:
	mov	w0, #-1
	ldp	x29, x30, [sp], #16
	ret
Ltmp220:
LBB0_99:
Lloh175:
	adrp	x8, ___TVMAPISetLastError@GOTPAGE
Ltmp221:
Lloh176:
	ldr	x8, [x8, ___TVMAPISetLastError@GOTPAGEOFF]
Lloh177:
	ldr	x8, [x8]
Lloh178:
	adrp	x0, l_.str.35@PAGE
Ltmp222:
Lloh179:
	add	x0, x0, l_.str.35@PAGEOFF
	blr	x8
Ltmp223:
	mov	w0, #-1
	ldp	x29, x30, [sp], #16
	ret
Ltmp224:
LBB0_100:
Lloh180:
	adrp	x8, ___TVMAPISetLastError@GOTPAGE
Ltmp225:
Lloh181:
	ldr	x8, [x8, ___TVMAPISetLastError@GOTPAGEOFF]
Lloh182:
	ldr	x8, [x8]
Lloh183:
	adrp	x0, l_.str.36@PAGE
Ltmp226:
Lloh184:
	add	x0, x0, l_.str.36@PAGEOFF
	blr	x8
Ltmp227:
	mov	w0, #-1
	ldp	x29, x30, [sp], #16
	ret
Ltmp228:
LBB0_101:
Lloh185:
	adrp	x8, ___TVMAPISetLastError@GOTPAGE
Ltmp229:
Lloh186:
	ldr	x8, [x8, ___TVMAPISetLastError@GOTPAGEOFF]
Lloh187:
	ldr	x8, [x8]
Lloh188:
	adrp	x0, l_.str.37@PAGE
Ltmp230:
Lloh189:
	add	x0, x0, l_.str.37@PAGEOFF
	blr	x8
Ltmp231:
	mov	w0, #-1
	ldp	x29, x30, [sp], #16
	ret
Ltmp232:
LBB0_102:
Lloh190:
	adrp	x8, ___TVMAPISetLastError@GOTPAGE
Ltmp233:
Lloh191:
	ldr	x8, [x8, ___TVMAPISetLastError@GOTPAGEOFF]
Lloh192:
	ldr	x8, [x8]
Lloh193:
	adrp	x0, l_.str.38@PAGE
Ltmp234:
Lloh194:
	add	x0, x0, l_.str.38@PAGEOFF
	blr	x8
Ltmp235:
	mov	w0, #-1
	ldp	x29, x30, [sp], #16
	ret
Ltmp236:
LBB0_103:
Lloh195:
	adrp	x8, ___TVMAPISetLastError@GOTPAGE
Ltmp237:
Lloh196:
	ldr	x8, [x8, ___TVMAPISetLastError@GOTPAGEOFF]
Lloh197:
	ldr	x8, [x8]
Lloh198:
	adrp	x0, l_.str.39@PAGE
Ltmp238:
Lloh199:
	add	x0, x0, l_.str.39@PAGEOFF
	blr	x8
Ltmp239:
	mov	w0, #-1
	ldp	x29, x30, [sp], #16
	ret
Ltmp240:
LBB0_104:
Lloh200:
	adrp	x8, ___TVMAPISetLastError@GOTPAGE
Ltmp241:
Lloh201:
	ldr	x8, [x8, ___TVMAPISetLastError@GOTPAGEOFF]
Lloh202:
	ldr	x8, [x8]
Lloh203:
	adrp	x0, l_.str.40@PAGE
Ltmp242:
Lloh204:
	add	x0, x0, l_.str.40@PAGEOFF
	blr	x8
Ltmp243:
	mov	w0, #-1
	ldp	x29, x30, [sp], #16
	ret
Ltmp244:
LBB0_105:
Lloh205:
	adrp	x8, ___TVMAPISetLastError@GOTPAGE
Ltmp245:
Lloh206:
	ldr	x8, [x8, ___TVMAPISetLastError@GOTPAGEOFF]
Lloh207:
	ldr	x8, [x8]
Lloh208:
	adrp	x0, l_.str.41@PAGE
Ltmp246:
Lloh209:
	add	x0, x0, l_.str.41@PAGEOFF
	blr	x8
Ltmp247:
	mov	w0, #-1
	ldp	x29, x30, [sp], #16
	ret
Ltmp248:
LBB0_106:
Lloh210:
	adrp	x8, ___TVMAPISetLastError@GOTPAGE
Ltmp249:
Lloh211:
	ldr	x8, [x8, ___TVMAPISetLastError@GOTPAGEOFF]
Lloh212:
	ldr	x8, [x8]
Lloh213:
	adrp	x0, l_.str.42@PAGE
Ltmp250:
Lloh214:
	add	x0, x0, l_.str.42@PAGEOFF
	blr	x8
Ltmp251:
	mov	w0, #-1
	ldp	x29, x30, [sp], #16
	ret
Ltmp252:
LBB0_107:
Lloh215:
	adrp	x8, ___TVMAPISetLastError@GOTPAGE
Ltmp253:
Lloh216:
	ldr	x8, [x8, ___TVMAPISetLastError@GOTPAGEOFF]
Lloh217:
	ldr	x8, [x8]
Lloh218:
	adrp	x0, l_.str.43@PAGE
Ltmp254:
Lloh219:
	add	x0, x0, l_.str.43@PAGEOFF
	blr	x8
Ltmp255:
	mov	w0, #-1
	ldp	x29, x30, [sp], #16
	ret
Ltmp256:
LBB0_108:
Lloh220:
	adrp	x8, ___TVMAPISetLastError@GOTPAGE
Ltmp257:
Lloh221:
	ldr	x8, [x8, ___TVMAPISetLastError@GOTPAGEOFF]
Lloh222:
	ldr	x8, [x8]
Lloh223:
	adrp	x0, l_.str.44@PAGE
Ltmp258:
Lloh224:
	add	x0, x0, l_.str.44@PAGEOFF
	blr	x8
Ltmp259:
	mov	w0, #-1
	ldp	x29, x30, [sp], #16
	ret
Ltmp260:
LBB0_109:
Lloh225:
	adrp	x8, ___TVMAPISetLastError@GOTPAGE
Lloh226:
	ldr	x8, [x8, ___TVMAPISetLastError@GOTPAGEOFF]
Lloh227:
	ldr	x8, [x8]
Lloh228:
	adrp	x0, l_.str.45@PAGE
Ltmp261:
Lloh229:
	add	x0, x0, l_.str.45@PAGEOFF
	blr	x8
Ltmp262:
	mov	w0, #-1
	ldp	x29, x30, [sp], #16
	ret
Ltmp263:
LBB0_110:
Lloh230:
	adrp	x8, ___TVMAPISetLastError@GOTPAGE
Lloh231:
	ldr	x8, [x8, ___TVMAPISetLastError@GOTPAGEOFF]
Lloh232:
	ldr	x8, [x8]
Lloh233:
	adrp	x0, l_.str.46@PAGE
Ltmp264:
Lloh234:
	add	x0, x0, l_.str.46@PAGEOFF
	blr	x8
Ltmp265:
	mov	w0, #-1
	ldp	x29, x30, [sp], #16
	ret
Ltmp266:
	.loh AdrpAdd	Lloh3, Lloh4
	.loh AdrpLdrGotLdr	Lloh0, Lloh1, Lloh2
	.loh AdrpAdd	Lloh8, Lloh9
	.loh AdrpLdrGotLdr	Lloh5, Lloh6, Lloh7
	.loh AdrpAdd	Lloh13, Lloh14
	.loh AdrpLdrGotLdr	Lloh10, Lloh11, Lloh12
	.loh AdrpAdd	Lloh18, Lloh19
	.loh AdrpLdrGotLdr	Lloh15, Lloh16, Lloh17
	.loh AdrpAdd	Lloh23, Lloh24
	.loh AdrpLdrGotLdr	Lloh20, Lloh21, Lloh22
	.loh AdrpAdd	Lloh28, Lloh29
	.loh AdrpLdrGotLdr	Lloh25, Lloh26, Lloh27
	.loh AdrpAdd	Lloh33, Lloh34
	.loh AdrpLdrGotLdr	Lloh30, Lloh31, Lloh32
	.loh AdrpAdd	Lloh38, Lloh39
	.loh AdrpLdrGotLdr	Lloh35, Lloh36, Lloh37
	.loh AdrpAdd	Lloh43, Lloh44
	.loh AdrpLdrGotLdr	Lloh40, Lloh41, Lloh42
	.loh AdrpAdd	Lloh48, Lloh49
	.loh AdrpLdrGotLdr	Lloh45, Lloh46, Lloh47
	.loh AdrpAdd	Lloh53, Lloh54
	.loh AdrpLdrGotLdr	Lloh50, Lloh51, Lloh52
	.loh AdrpAdd	Lloh58, Lloh59
	.loh AdrpLdrGotLdr	Lloh55, Lloh56, Lloh57
	.loh AdrpAdd	Lloh63, Lloh64
	.loh AdrpLdrGotLdr	Lloh60, Lloh61, Lloh62
	.loh AdrpAdd	Lloh68, Lloh69
	.loh AdrpLdrGotLdr	Lloh65, Lloh66, Lloh67
	.loh AdrpAdd	Lloh73, Lloh74
	.loh AdrpLdrGotLdr	Lloh70, Lloh71, Lloh72
	.loh AdrpAdd	Lloh78, Lloh79
	.loh AdrpLdrGotLdr	Lloh75, Lloh76, Lloh77
	.loh AdrpAdd	Lloh83, Lloh84
	.loh AdrpLdrGotLdr	Lloh80, Lloh81, Lloh82
	.loh AdrpAdd	Lloh88, Lloh89
	.loh AdrpLdrGotLdr	Lloh85, Lloh86, Lloh87
	.loh AdrpAdd	Lloh93, Lloh94
	.loh AdrpLdrGotLdr	Lloh90, Lloh91, Lloh92
	.loh AdrpAdd	Lloh98, Lloh99
	.loh AdrpLdrGotLdr	Lloh95, Lloh96, Lloh97
	.loh AdrpAdd	Lloh103, Lloh104
	.loh AdrpLdrGotLdr	Lloh100, Lloh101, Lloh102
	.loh AdrpAdd	Lloh108, Lloh109
	.loh AdrpLdrGotLdr	Lloh105, Lloh106, Lloh107
	.loh AdrpAdd	Lloh113, Lloh114
	.loh AdrpLdrGotLdr	Lloh110, Lloh111, Lloh112
	.loh AdrpAdd	Lloh118, Lloh119
	.loh AdrpLdrGotLdr	Lloh115, Lloh116, Lloh117
	.loh AdrpAdd	Lloh123, Lloh124
	.loh AdrpLdrGotLdr	Lloh120, Lloh121, Lloh122
	.loh AdrpAdd	Lloh128, Lloh129
	.loh AdrpLdrGotLdr	Lloh125, Lloh126, Lloh127
	.loh AdrpAdd	Lloh133, Lloh134
	.loh AdrpLdrGotLdr	Lloh130, Lloh131, Lloh132
	.loh AdrpAdd	Lloh138, Lloh139
	.loh AdrpLdrGotLdr	Lloh135, Lloh136, Lloh137
	.loh AdrpAdd	Lloh143, Lloh144
	.loh AdrpLdrGotLdr	Lloh140, Lloh141, Lloh142
	.loh AdrpAdd	Lloh148, Lloh149
	.loh AdrpLdrGotLdr	Lloh145, Lloh146, Lloh147
	.loh AdrpAdd	Lloh153, Lloh154
	.loh AdrpLdrGotLdr	Lloh150, Lloh151, Lloh152
	.loh AdrpAdd	Lloh158, Lloh159
	.loh AdrpLdrGotLdr	Lloh155, Lloh156, Lloh157
	.loh AdrpAdd	Lloh163, Lloh164
	.loh AdrpLdrGotLdr	Lloh160, Lloh161, Lloh162
	.loh AdrpAdd	Lloh168, Lloh169
	.loh AdrpLdrGotLdr	Lloh165, Lloh166, Lloh167
	.loh AdrpAdd	Lloh173, Lloh174
	.loh AdrpLdrGotLdr	Lloh170, Lloh171, Lloh172
	.loh AdrpAdd	Lloh178, Lloh179
	.loh AdrpLdrGotLdr	Lloh175, Lloh176, Lloh177
	.loh AdrpAdd	Lloh183, Lloh184
	.loh AdrpLdrGotLdr	Lloh180, Lloh181, Lloh182
	.loh AdrpAdd	Lloh188, Lloh189
	.loh AdrpLdrGotLdr	Lloh185, Lloh186, Lloh187
	.loh AdrpAdd	Lloh193, Lloh194
	.loh AdrpLdrGotLdr	Lloh190, Lloh191, Lloh192
	.loh AdrpAdd	Lloh198, Lloh199
	.loh AdrpLdrGotLdr	Lloh195, Lloh196, Lloh197
	.loh AdrpAdd	Lloh203, Lloh204
	.loh AdrpLdrGotLdr	Lloh200, Lloh201, Lloh202
	.loh AdrpAdd	Lloh208, Lloh209
	.loh AdrpLdrGotLdr	Lloh205, Lloh206, Lloh207
	.loh AdrpAdd	Lloh213, Lloh214
	.loh AdrpLdrGotLdr	Lloh210, Lloh211, Lloh212
	.loh AdrpAdd	Lloh218, Lloh219
	.loh AdrpLdrGotLdr	Lloh215, Lloh216, Lloh217
	.loh AdrpAdd	Lloh223, Lloh224
	.loh AdrpLdrGotLdr	Lloh220, Lloh221, Lloh222
	.loh AdrpAdd	Lloh228, Lloh229
	.loh AdrpLdrGotLdr	Lloh225, Lloh226, Lloh227
	.loh AdrpAdd	Lloh233, Lloh234
	.loh AdrpLdrGotLdr	Lloh230, Lloh231, Lloh232
Lfunc_end0:
	.cfi_endproc

	.section	__TEXT,__literal16,16byte_literals
	.p2align	4, 0x0
lCPI1_0:
	.byte	255
	.byte	255
	.byte	255
	.byte	255
	.byte	255
	.byte	255
	.byte	255
	.byte	255
	.byte	255
	.byte	255
	.byte	255
	.byte	255
	.byte	0
	.byte	8
	.byte	16
	.byte	24
lCPI1_1:
	.byte	255
	.byte	255
	.byte	255
	.byte	255
	.byte	255
	.byte	255
	.byte	255
	.byte	255
	.byte	0
	.byte	8
	.byte	16
	.byte	24
	.byte	255
	.byte	255
	.byte	255
	.byte	255
lCPI1_2:
	.byte	255
	.byte	255
	.byte	255
	.byte	255
	.byte	0
	.byte	8
	.byte	16
	.byte	24
	.byte	255
	.byte	255
	.byte	255
	.byte	255
	.byte	255
	.byte	255
	.byte	255
	.byte	255
lCPI1_3:
	.byte	0
	.byte	8
	.byte	16
	.byte	24
	.byte	255
	.byte	255
	.byte	255
	.byte	255
	.byte	255
	.byte	255
	.byte	255
	.byte	255
	.byte	255
	.byte	255
	.byte	255
	.byte	255
lCPI1_4:
	.byte	255
	.byte	255
	.byte	255
	.byte	255
	.byte	255
	.byte	255
	.byte	255
	.byte	255
	.byte	255
	.byte	255
	.byte	255
	.byte	255
	.byte	1
	.byte	9
	.byte	17
	.byte	25
lCPI1_5:
	.byte	255
	.byte	255
	.byte	255
	.byte	255
	.byte	255
	.byte	255
	.byte	255
	.byte	255
	.byte	1
	.byte	9
	.byte	17
	.byte	25
	.byte	255
	.byte	255
	.byte	255
	.byte	255
lCPI1_6:
	.byte	255
	.byte	255
	.byte	255
	.byte	255
	.byte	1
	.byte	9
	.byte	17
	.byte	25
	.byte	255
	.byte	255
	.byte	255
	.byte	255
	.byte	255
	.byte	255
	.byte	255
	.byte	255
lCPI1_7:
	.byte	1
	.byte	9
	.byte	17
	.byte	25
	.byte	255
	.byte	255
	.byte	255
	.byte	255
	.byte	255
	.byte	255
	.byte	255
	.byte	255
	.byte	255
	.byte	255
	.byte	255
	.byte	255
lCPI1_8:
	.byte	255
	.byte	255
	.byte	255
	.byte	255
	.byte	255
	.byte	255
	.byte	255
	.byte	255
	.byte	255
	.byte	255
	.byte	255
	.byte	255
	.byte	2
	.byte	10
	.byte	18
	.byte	26
lCPI1_9:
	.byte	255
	.byte	255
	.byte	255
	.byte	255
	.byte	255
	.byte	255
	.byte	255
	.byte	255
	.byte	2
	.byte	10
	.byte	18
	.byte	26
	.byte	255
	.byte	255
	.byte	255
	.byte	255
lCPI1_10:
	.byte	255
	.byte	255
	.byte	255
	.byte	255
	.byte	2
	.byte	10
	.byte	18
	.byte	26
	.byte	255
	.byte	255
	.byte	255
	.byte	255
	.byte	255
	.byte	255
	.byte	255
	.byte	255
lCPI1_11:
	.byte	2
	.byte	10
	.byte	18
	.byte	26
	.byte	255
	.byte	255
	.byte	255
	.byte	255
	.byte	255
	.byte	255
	.byte	255
	.byte	255
	.byte	255
	.byte	255
	.byte	255
	.byte	255
lCPI1_12:
	.byte	255
	.byte	255
	.byte	255
	.byte	255
	.byte	255
	.byte	255
	.byte	255
	.byte	255
	.byte	255
	.byte	255
	.byte	255
	.byte	255
	.byte	3
	.byte	11
	.byte	19
	.byte	27
lCPI1_13:
	.byte	255
	.byte	255
	.byte	255
	.byte	255
	.byte	255
	.byte	255
	.byte	255
	.byte	255
	.byte	3
	.byte	11
	.byte	19
	.byte	27
	.byte	255
	.byte	255
	.byte	255
	.byte	255
lCPI1_14:
	.byte	255
	.byte	255
	.byte	255
	.byte	255
	.byte	3
	.byte	11
	.byte	19
	.byte	27
	.byte	255
	.byte	255
	.byte	255
	.byte	255
	.byte	255
	.byte	255
	.byte	255
	.byte	255
lCPI1_15:
	.byte	3
	.byte	11
	.byte	19
	.byte	27
	.byte	255
	.byte	255
	.byte	255
	.byte	255
	.byte	255
	.byte	255
	.byte	255
	.byte	255
	.byte	255
	.byte	255
	.byte	255
	.byte	255
lCPI1_16:
	.byte	255
	.byte	255
	.byte	255
	.byte	255
	.byte	255
	.byte	255
	.byte	255
	.byte	255
	.byte	255
	.byte	255
	.byte	255
	.byte	255
	.byte	4
	.byte	12
	.byte	20
	.byte	28
lCPI1_17:
	.byte	255
	.byte	255
	.byte	255
	.byte	255
	.byte	255
	.byte	255
	.byte	255
	.byte	255
	.byte	4
	.byte	12
	.byte	20
	.byte	28
	.byte	255
	.byte	255
	.byte	255
	.byte	255
lCPI1_18:
	.byte	255
	.byte	255
	.byte	255
	.byte	255
	.byte	4
	.byte	12
	.byte	20
	.byte	28
	.byte	255
	.byte	255
	.byte	255
	.byte	255
	.byte	255
	.byte	255
	.byte	255
	.byte	255
lCPI1_19:
	.byte	4
	.byte	12
	.byte	20
	.byte	28
	.byte	255
	.byte	255
	.byte	255
	.byte	255
	.byte	255
	.byte	255
	.byte	255
	.byte	255
	.byte	255
	.byte	255
	.byte	255
	.byte	255
lCPI1_20:
	.byte	255
	.byte	255
	.byte	255
	.byte	255
	.byte	255
	.byte	255
	.byte	255
	.byte	255
	.byte	255
	.byte	255
	.byte	255
	.byte	255
	.byte	5
	.byte	13
	.byte	21
	.byte	29
lCPI1_21:
	.byte	255
	.byte	255
	.byte	255
	.byte	255
	.byte	255
	.byte	255
	.byte	255
	.byte	255
	.byte	5
	.byte	13
	.byte	21
	.byte	29
	.byte	255
	.byte	255
	.byte	255
	.byte	255
lCPI1_22:
	.byte	255
	.byte	255
	.byte	255
	.byte	255
	.byte	5
	.byte	13
	.byte	21
	.byte	29
	.byte	255
	.byte	255
	.byte	255
	.byte	255
	.byte	255
	.byte	255
	.byte	255
	.byte	255
lCPI1_23:
	.byte	5
	.byte	13
	.byte	21
	.byte	29
	.byte	255
	.byte	255
	.byte	255
	.byte	255
	.byte	255
	.byte	255
	.byte	255
	.byte	255
	.byte	255
	.byte	255
	.byte	255
	.byte	255
lCPI1_24:
	.byte	255
	.byte	255
	.byte	255
	.byte	255
	.byte	255
	.byte	255
	.byte	255
	.byte	255
	.byte	255
	.byte	255
	.byte	255
	.byte	255
	.byte	6
	.byte	14
	.byte	22
	.byte	30
lCPI1_25:
	.byte	255
	.byte	255
	.byte	255
	.byte	255
	.byte	255
	.byte	255
	.byte	255
	.byte	255
	.byte	6
	.byte	14
	.byte	22
	.byte	30
	.byte	255
	.byte	255
	.byte	255
	.byte	255
lCPI1_26:
	.byte	255
	.byte	255
	.byte	255
	.byte	255
	.byte	6
	.byte	14
	.byte	22
	.byte	30
	.byte	255
	.byte	255
	.byte	255
	.byte	255
	.byte	255
	.byte	255
	.byte	255
	.byte	255
lCPI1_27:
	.byte	6
	.byte	14
	.byte	22
	.byte	30
	.byte	255
	.byte	255
	.byte	255
	.byte	255
	.byte	255
	.byte	255
	.byte	255
	.byte	255
	.byte	255
	.byte	255
	.byte	255
	.byte	255
lCPI1_28:
	.byte	255
	.byte	255
	.byte	255
	.byte	255
	.byte	255
	.byte	255
	.byte	255
	.byte	255
	.byte	255
	.byte	255
	.byte	255
	.byte	255
	.byte	7
	.byte	15
	.byte	23
	.byte	31
lCPI1_29:
	.byte	255
	.byte	255
	.byte	255
	.byte	255
	.byte	255
	.byte	255
	.byte	255
	.byte	255
	.byte	7
	.byte	15
	.byte	23
	.byte	31
	.byte	255
	.byte	255
	.byte	255
	.byte	255
lCPI1_30:
	.byte	255
	.byte	255
	.byte	255
	.byte	255
	.byte	7
	.byte	15
	.byte	23
	.byte	31
	.byte	255
	.byte	255
	.byte	255
	.byte	255
	.byte	255
	.byte	255
	.byte	255
	.byte	255
lCPI1_31:
	.byte	7
	.byte	15
	.byte	23
	.byte	31
	.byte	255
	.byte	255
	.byte	255
	.byte	255
	.byte	255
	.byte	255
	.byte	255
	.byte	255
	.byte	255
	.byte	255
	.byte	255
	.byte	255
	.section	__TEXT,__text,regular,pure_instructions
	.p2align	2
_preprocessor_t4_int8_m6400_k3200_n1_b2_compute_:
Lfunc_begin1:
	.loc	1 0 0
	.cfi_startproc
	sub	sp, sp, #448
	stp	d15, d14, [sp, #368]
	stp	d13, d12, [sp, #384]
	stp	d11, d10, [sp, #400]
	stp	d9, d8, [sp, #416]
	stp	x28, x27, [sp, #432]
	.cfi_def_cfa_offset 448
	.cfi_offset w27, -8
	.cfi_offset w28, -16
	.cfi_offset b8, -24
	.cfi_offset b9, -32
	.cfi_offset b10, -40
	.cfi_offset b11, -48
	.cfi_offset b12, -56
	.cfi_offset b13, -64
	.cfi_offset b14, -72
	.cfi_offset b15, -80
	mov	x8, #0
Ltmp267:
	add	x9, x1, #64
	mov	w10, #22512
	fmov	h0, w10
	movi	d1, #0000000000000000
Ltmp268:
LBB1_1:
	sub	x10, x9, #64
	ld4.8h	{ v2, v3, v4, v5 }, [x10]
	ld4.8h	{ v16, v17, v18, v19 }, [x9]
	fabs.8h	v6, v2
	fabs.8h	v7, v3
	fabs.8h	v20, v4
	fabs.8h	v2, v5
	fadd.8h	v3, v6, v7
	fadd.8h	v3, v20, v3
	fadd.8h	v2, v2, v3
	fmaxv.8h	h2, v2
	fdiv	h2, h2, h0
	fabs.8h	v3, v16
	fabs.8h	v4, v17
	fadd.8h	v3, v3, v4
	fabs.8h	v4, v18
	fmaxnm	h2, h2, h1
	fadd.8h	v3, v4, v3
	fabs.8h	v4, v19
	fadd.8h	v3, v4, v3
	fmaxv.8h	h3, v3
	fdiv	h3, h3, h0
	fcmp	h2, h3
	fcsel	h2, h3, h2, mi
	str	h2, [x0, x8]
	add	x8, x8, #2
	add	x9, x9, #128
	cmp	x8, #100
	b.ne	LBB1_1
Ltmp269:
	mov	x8, #0
Lloh235:
	adrp	x9, lCPI1_0@PAGE
Lloh236:
	ldr	q26, [x9, lCPI1_0@PAGEOFF]
Lloh237:
	adrp	x9, lCPI1_1@PAGE
Lloh238:
	ldr	q28, [x9, lCPI1_1@PAGEOFF]
Lloh239:
	adrp	x9, lCPI1_2@PAGE
Lloh240:
	ldr	q27, [x9, lCPI1_2@PAGEOFF]
Lloh241:
	adrp	x9, lCPI1_3@PAGE
Lloh242:
	ldr	q29, [x9, lCPI1_3@PAGEOFF]
Lloh243:
	adrp	x9, lCPI1_4@PAGE
Lloh244:
	ldr	q30, [x9, lCPI1_4@PAGEOFF]
Lloh245:
	adrp	x9, lCPI1_5@PAGE
Lloh246:
	ldr	q31, [x9, lCPI1_5@PAGEOFF]
Lloh247:
	adrp	x9, lCPI1_6@PAGE
Lloh248:
	ldr	q8, [x9, lCPI1_6@PAGEOFF]
Lloh249:
	adrp	x9, lCPI1_7@PAGE
Lloh250:
	ldr	q9, [x9, lCPI1_7@PAGEOFF]
Lloh251:
	adrp	x9, lCPI1_8@PAGE
Lloh252:
	ldr	q10, [x9, lCPI1_8@PAGEOFF]
Lloh253:
	adrp	x9, lCPI1_9@PAGE
Lloh254:
	ldr	q11, [x9, lCPI1_9@PAGEOFF]
Lloh255:
	adrp	x9, lCPI1_10@PAGE
Lloh256:
	ldr	q12, [x9, lCPI1_10@PAGEOFF]
Lloh257:
	adrp	x9, lCPI1_11@PAGE
Lloh258:
	ldr	q13, [x9, lCPI1_11@PAGEOFF]
Lloh259:
	adrp	x9, lCPI1_12@PAGE
Lloh260:
	ldr	q14, [x9, lCPI1_12@PAGEOFF]
Lloh261:
	adrp	x9, lCPI1_13@PAGE
Lloh262:
	ldr	q15, [x9, lCPI1_13@PAGEOFF]
Lloh263:
	adrp	x9, lCPI1_14@PAGE
Lloh264:
	ldr	q0, [x9, lCPI1_14@PAGEOFF]
	str	q0, [sp, #288]
Lloh265:
	adrp	x9, lCPI1_15@PAGE
Lloh266:
	ldr	q0, [x9, lCPI1_15@PAGEOFF]
	str	q0, [sp, #272]
Lloh267:
	adrp	x9, lCPI1_16@PAGE
Lloh268:
	ldr	q0, [x9, lCPI1_16@PAGEOFF]
	str	q0, [sp, #256]
Lloh269:
	adrp	x9, lCPI1_17@PAGE
Lloh270:
	ldr	q0, [x9, lCPI1_17@PAGEOFF]
	str	q0, [sp, #240]
Lloh271:
	adrp	x9, lCPI1_18@PAGE
Lloh272:
	ldr	q0, [x9, lCPI1_18@PAGEOFF]
	str	q0, [sp, #224]
Lloh273:
	adrp	x9, lCPI1_19@PAGE
Lloh274:
	ldr	q0, [x9, lCPI1_19@PAGEOFF]
	str	q0, [sp, #208]
Lloh275:
	adrp	x9, lCPI1_20@PAGE
Lloh276:
	ldr	q22, [x9, lCPI1_20@PAGEOFF]
Lloh277:
	adrp	x9, lCPI1_21@PAGE
Lloh278:
	ldr	q0, [x9, lCPI1_21@PAGEOFF]
	str	q0, [sp, #176]
Lloh279:
	adrp	x9, lCPI1_22@PAGE
Lloh280:
	ldr	q0, [x9, lCPI1_22@PAGEOFF]
	str	q0, [sp, #160]
Lloh281:
	adrp	x9, lCPI1_23@PAGE
Lloh282:
	ldr	q0, [x9, lCPI1_23@PAGEOFF]
	str	q0, [sp, #144]
Lloh283:
	adrp	x9, lCPI1_24@PAGE
Lloh284:
	ldr	q25, [x9, lCPI1_24@PAGEOFF]
Lloh285:
	adrp	x9, lCPI1_25@PAGE
Lloh286:
	ldr	q0, [x9, lCPI1_25@PAGEOFF]
	str	q0, [sp, #112]
Lloh287:
	adrp	x9, lCPI1_26@PAGE
Lloh288:
	ldr	q0, [x9, lCPI1_26@PAGEOFF]
	str	q0, [sp, #96]
Lloh289:
	adrp	x9, lCPI1_27@PAGE
Lloh290:
	ldr	q0, [x9, lCPI1_27@PAGEOFF]
	str	q0, [sp, #80]
Lloh291:
	adrp	x9, lCPI1_28@PAGE
Lloh292:
	ldr	q17, [x9, lCPI1_28@PAGEOFF]
Lloh293:
	adrp	x9, lCPI1_29@PAGE
Lloh294:
	ldr	q7, [x9, lCPI1_29@PAGEOFF]
Lloh295:
	adrp	x9, lCPI1_30@PAGE
Lloh296:
	ldr	q5, [x9, lCPI1_30@PAGEOFF]
Lloh297:
	adrp	x9, lCPI1_31@PAGE
Lloh298:
	ldr	q3, [x9, lCPI1_31@PAGEOFF]
	add	x9, x2, #63
	stp	q8, q12, [sp, #320]
	str	q27, [sp, #304]
	str	q22, [sp, #192]
	str	q25, [sp, #128]
	stp	q7, q17, [sp, #48]
	stp	q3, q5, [sp, #16]
Ltmp270:
LBB1_3:
	mov	x10, #0
	ldr	h1, [x0, x8, lsl #1]
	fmov	h0, #1.00000000
	fdiv	h0, h0, h1
	str	h1, [sp, #14]
	fcmp	h1, #0.0
	movi	d1, #0000000000000000
	fcsel	h0, h0, h1, ne
	mov	x11, x9
Ltmp271:
LBB1_4:
	str	h1, [sp, #366]
	add	x12, x1, x10
	ld4.8h	{ v2, v3, v4, v5 }, [x12]
	fsub.8h	v6, v2, v3
	fsub.8h	v7, v6, v4
	fadd.8h	v16, v2, v3
	fsub.8h	v18, v7, v5
	fsub.8h	v17, v16, v4
	fsub.8h	v19, v17, v5
	fadd.8h	v6, v4, v6
	fsub.8h	v20, v6, v5
	fadd.8h	v16, v4, v16
	fsub.8h	v21, v16, v5
	fadd.8h	v22, v5, v7
	fadd.8h	v24, v5, v17
	fadd.8h	v25, v5, v6
	mov.16b	v12, v14
	mov.16b	v14, v10
	mov.16b	v10, v30
	mov.16b	v8, v26
	fadd.8h	v26, v5, v16
	fneg.8h	v23, v26
	fneg.8h	v2, v25
	fneg.8h	v4, v24
	fneg.8h	v5, v22
	fneg.8h	v6, v21
	fneg.8h	v7, v20
	fneg.8h	v16, v19
	fneg.8h	v17, v18
	fcvtl	v3.4s, v23.4h
	faddp.2s	s3, v3
	mov	h27, v23[2]
	fcvt	s27, h27
	mov.16b	v30, v15
	mov.16b	v15, v11
	mov.16b	v11, v31
	mov.16b	v31, v28
	mov	h28, v23[3]
	fadd	s3, s3, s27
	fcvt	s27, h28
	fadd	s27, s3, s27
	fmul.8h	v3, v23, v0[0]
	fmul.8h	v28, v2, v0[0]
	fcvtns.8h	v2, v3
	sqxtn.8b	v2, v2
	fcvtns.8h	v28, v28
	sqxtn.8b	v3, v28
	mov	h28, v23[4]
	fmul.8h	v4, v4, v0[0]
	mov.16b	v1, v13
	mov.16b	v13, v9
	mov.16b	v9, v29
	fmul.8h	v29, v5, v0[0]
	fcvt	s5, h28
	fmul.8h	v6, v6, v0[0]
	fmul.8h	v7, v7, v0[0]
	fmul.8h	v16, v16, v0[0]
	fmul.8h	v28, v17, v0[0]
	fcvtns.8h	v4, v4
	fadd	s27, s27, s5
	sqxtn.8b	v4, v4
	fcvtns.8h	v17, v29
	mov.16b	v29, v9
	mov.16b	v9, v13
	mov.16b	v13, v1
	sqxtn.8b	v5, v17
	fcvtns.8h	v6, v6
	fcvtns.8h	v17, v7
	sqxtn.8b	v6, v6
	sqxtn.8b	v7, v17
	fcvtns.8h	v16, v16
	sqxtn.8b	v16, v16
	fcvtns.8h	v28, v28
	sqxtn.8b	v17, v28
	mov.16b	v28, v31
	mov.16b	v31, v11
	mov.16b	v11, v15
	mov.16b	v15, v30
	fmul.8h	v26, v26, v0[0]
	fcvtns.8h	v26, v26
	sqxtn2.16b	v17, v26
	mov.16b	v26, v8
	mov.16b	v30, v10
	mov.16b	v10, v14
	mov.16b	v14, v12
	fmul.8h	v25, v25, v0[0]
	fcvtns.8h	v25, v25
	sqxtn2.16b	v16, v25
	fmul.8h	v24, v24, v0[0]
	fcvtns.8h	v24, v24
	sqxtn2.16b	v7, v24
	mov	h24, v23[5]
	fmul.8h	v22, v22, v0[0]
	fcvtns.8h	v22, v22
	fcvt	s24, h24
	sqxtn2.16b	v6, v22
	mov	h22, v23[6]
	mov	h23, v23[7]
	fmul.8h	v18, v18, v0[0]
	fmul.8h	v19, v19, v0[0]
	fcvt	s22, h22
	fmul.8h	v20, v20, v0[0]
	fmul.8h	v21, v21, v0[0]
	fcvtns.8h	v18, v18
	fcvtns.8h	v19, v19
	fcvtns.8h	v20, v20
	fcvt	s23, h23
	fcvtns.8h	v21, v21
	sqxtn2.16b	v5, v21
	tbl.16b	v21, { v16, v17 }, v8
	sqxtn2.16b	v4, v20
	tbl.16b	v20, { v6, v7 }, v28
	fadd	s24, s27, s24
	ldp	q27, q8, [sp, #304]
	ldr	q12, [sp, #336]
	tbl.16b	v25, { v4, v5 }, v27
	sqxtn2.16b	v3, v19
	sqxtn2.16b	v2, v18
	tbl.16b	v18, { v2, v3 }, v29
	mov.s	v20[3], v21[3]
	mov.s	v18[1], v25[1]
	tbl.16b	v19, { v16, v17 }, v30
	tbl.16b	v21, { v6, v7 }, v31
	mov.s	v21[3], v19[3]
	tbl.16b	v19, { v4, v5 }, v8
	tbl.16b	v25, { v2, v3 }, v9
	mov.s	v25[1], v19[1]
	tbl.16b	v19, { v16, v17 }, v10
	fadd	s22, s24, s22
	tbl.16b	v24, { v6, v7 }, v11
	mov.s	v24[3], v19[3]
	tbl.16b	v19, { v4, v5 }, v12
	mov.d	v18[1], v20[1]
	tbl.16b	v20, { v2, v3 }, v1
	mov.s	v20[1], v19[1]
	tbl.16b	v19, { v16, v17 }, v14
	mov.d	v25[1], v21[1]
	tbl.16b	v21, { v6, v7 }, v15
	mov.s	v21[3], v19[3]
	ldr	q1, [sp, #288]
	tbl.16b	v19, { v4, v5 }, v1
	mov.d	v20[1], v24[1]
	ldr	q1, [sp, #272]
	tbl.16b	v24, { v2, v3 }, v1
	mov.s	v24[1], v19[1]
	mov.d	v24[1], v21[1]
	fadd	s19, s22, s23
	ldr	q1, [sp, #256]
	tbl.16b	v21, { v16, v17 }, v1
	ldr	q1, [sp, #240]
	tbl.16b	v22, { v6, v7 }, v1
	mov.s	v22[3], v21[3]
	ldr	q1, [sp, #224]
	tbl.16b	v21, { v4, v5 }, v1
	ldr	q1, [sp, #208]
	tbl.16b	v23, { v2, v3 }, v1
	mov.s	v23[1], v21[1]
	ldr	h1, [sp, #366]
	fcvt	s1, h1
	mov.d	v23[1], v22[1]
	ldp	q21, q22, [sp, #176]
	fadd	s1, s19, s1
	tbl.16b	v19, { v16, v17 }, v22
	tbl.16b	v21, { v6, v7 }, v21
	mov.s	v21[3], v19[3]
	ldr	q19, [sp, #160]
	tbl.16b	v19, { v4, v5 }, v19
	stur	q18, [x11, #-63]
	ldr	q18, [sp, #144]
	tbl.16b	v18, { v2, v3 }, v18
	mov.s	v18[1], v19[1]
	mov.d	v18[1], v21[1]
	stur	q25, [x11, #-47]
	ldp	q21, q25, [sp, #112]
	tbl.16b	v19, { v16, v17 }, v25
	tbl.16b	v21, { v6, v7 }, v21
	mov.s	v21[3], v19[3]
	ldr	q19, [sp, #96]
	tbl.16b	v19, { v4, v5 }, v19
	stur	q20, [x11, #-31]
	ldr	q20, [sp, #80]
	tbl.16b	v20, { v2, v3 }, v20
	mov.s	v20[1], v19[1]
	mov.d	v20[1], v21[1]
	stur	q24, [x11, #-15]
	ldr	q19, [sp, #64]
	tbl.16b	v16, { v16, v17 }, v19
	ldr	q19, [sp, #48]
	tbl.16b	v6, { v6, v7 }, v19
	mov.s	v6[3], v16[3]
	ldr	q16, [sp, #32]
	tbl.16b	v4, { v4, v5 }, v16
	stur	q23, [x11, #1]
	ldr	q16, [sp, #16]
	tbl.16b	v2, { v2, v3 }, v16
	mov.s	v2[1], v4[1]
	mov.d	v2[1], v6[1]
	stur	q18, [x11, #17]
	stur	q20, [x11, #33]
	stur	q2, [x11, #49]
	fcvt	h1, s1
	add	x10, x10, #64
	add	x11, x11, #128
	cmp	x10, #128
	b.ne	LBB1_4
Ltmp272:
	lsl	x10, x8, #1
	ldr	h0, [sp, #14]
	str	h0, [x0, x10]
	str	h1, [x3, x10]
	add	x8, x8, #1
Ltmp273:
	add	x1, x1, #128
Ltmp274:
	add	x9, x9, #256
	cmp	x8, #50
	b.ne	LBB1_3
Ltmp275:
	ldp	x28, x27, [sp, #432]
	ldp	d9, d8, [sp, #416]
	ldp	d11, d10, [sp, #400]
	ldp	d13, d12, [sp, #384]
	ldp	d15, d14, [sp, #368]
	add	sp, sp, #448
	ret
Ltmp276:
	.loh AdrpLdr	Lloh297, Lloh298
	.loh AdrpAdrp	Lloh295, Lloh297
	.loh AdrpLdr	Lloh295, Lloh296
	.loh AdrpAdrp	Lloh293, Lloh295
	.loh AdrpLdr	Lloh293, Lloh294
	.loh AdrpAdrp	Lloh291, Lloh293
	.loh AdrpLdr	Lloh291, Lloh292
	.loh AdrpAdrp	Lloh289, Lloh291
	.loh AdrpLdr	Lloh289, Lloh290
	.loh AdrpAdrp	Lloh287, Lloh289
	.loh AdrpLdr	Lloh287, Lloh288
	.loh AdrpAdrp	Lloh285, Lloh287
	.loh AdrpLdr	Lloh285, Lloh286
	.loh AdrpAdrp	Lloh283, Lloh285
	.loh AdrpLdr	Lloh283, Lloh284
	.loh AdrpAdrp	Lloh281, Lloh283
	.loh AdrpLdr	Lloh281, Lloh282
	.loh AdrpAdrp	Lloh279, Lloh281
	.loh AdrpLdr	Lloh279, Lloh280
	.loh AdrpAdrp	Lloh277, Lloh279
	.loh AdrpLdr	Lloh277, Lloh278
	.loh AdrpAdrp	Lloh275, Lloh277
	.loh AdrpLdr	Lloh275, Lloh276
	.loh AdrpAdrp	Lloh273, Lloh275
	.loh AdrpLdr	Lloh273, Lloh274
	.loh AdrpAdrp	Lloh271, Lloh273
	.loh AdrpLdr	Lloh271, Lloh272
	.loh AdrpAdrp	Lloh269, Lloh271
	.loh AdrpLdr	Lloh269, Lloh270
	.loh AdrpAdrp	Lloh267, Lloh269
	.loh AdrpLdr	Lloh267, Lloh268
	.loh AdrpAdrp	Lloh265, Lloh267
	.loh AdrpLdr	Lloh265, Lloh266
	.loh AdrpAdrp	Lloh263, Lloh265
	.loh AdrpLdr	Lloh263, Lloh264
	.loh AdrpAdrp	Lloh261, Lloh263
	.loh AdrpLdr	Lloh261, Lloh262
	.loh AdrpAdrp	Lloh259, Lloh261
	.loh AdrpLdr	Lloh259, Lloh260
	.loh AdrpAdrp	Lloh257, Lloh259
	.loh AdrpLdr	Lloh257, Lloh258
	.loh AdrpAdrp	Lloh255, Lloh257
	.loh AdrpLdr	Lloh255, Lloh256
	.loh AdrpAdrp	Lloh253, Lloh255
	.loh AdrpLdr	Lloh253, Lloh254
	.loh AdrpAdrp	Lloh251, Lloh253
	.loh AdrpLdr	Lloh251, Lloh252
	.loh AdrpAdrp	Lloh249, Lloh251
	.loh AdrpLdr	Lloh249, Lloh250
	.loh AdrpAdrp	Lloh247, Lloh249
	.loh AdrpLdr	Lloh247, Lloh248
	.loh AdrpAdrp	Lloh245, Lloh247
	.loh AdrpLdr	Lloh245, Lloh246
	.loh AdrpAdrp	Lloh243, Lloh245
	.loh AdrpLdr	Lloh243, Lloh244
	.loh AdrpAdrp	Lloh241, Lloh243
	.loh AdrpLdr	Lloh241, Lloh242
	.loh AdrpAdrp	Lloh239, Lloh241
	.loh AdrpLdr	Lloh239, Lloh240
	.loh AdrpAdrp	Lloh237, Lloh239
	.loh AdrpLdr	Lloh237, Lloh238
	.loh AdrpAdrp	Lloh235, Lloh237
	.loh AdrpLdr	Lloh235, Lloh236
Lfunc_end1:
	.cfi_endproc

	.globl	___truncsfhf2
	.weak_definition	___truncsfhf2
	.p2align	2
___truncsfhf2:
Lfunc_begin2:
	.cfi_startproc
	fmov	w8, s0
	and	w9, w8, #0x7fffffff
	mov	w10, #-947912704
	add	w10, w9, w10
	mov	w11, #-1199570944
	add	w11, w9, w11
	cmp	w10, w11
	b.hs	LBB2_2
	mov	w9, #16384
	movk	w9, #65534, lsl #16
	ubfx	w10, w8, #13, #16
	sub	w11, w10, #28, lsl #12
	and	w12, w8, #0x1fff
	ubfx	w13, w8, #13, #1
	add	w13, w13, w11, uxth
	cmp	w12, #1, lsl #12
	csel	w11, w11, w13, ne
	add	w9, w9, w10
	cmp	w12, #1, lsl #12
	csinc	w9, w11, w9, ls
	lsr	w8, w8, #31
	orr	w0, w9, w8, lsl #15
	ret
LBB2_2:
	mov	w10, #1
	movk	w10, #32640, lsl #16
	cmp	w9, w10
	b.lo	LBB2_4
	mov	w9, #32256
	bfxil	w9, w8, #13, #9
	lsr	w8, w8, #31
	orr	w0, w9, w8, lsl #15
	ret
LBB2_4:
	lsr	w10, w9, #23
	cmp	w10, #142
	b.ls	LBB2_6
	mov	w9, #31744
	lsr	w8, w8, #31
	orr	w0, w9, w8, lsl #15
	ret
LBB2_6:
	lsr	w9, w9, #24
	cmp	w9, #45
	b.hs	LBB2_8
	mov	w9, #0
	lsr	w8, w8, #31
	orr	w0, w9, w8, lsl #15
	ret
LBB2_8:
	mov	w9, #113
	sub	w9, w9, w10
	mov	w11, #8388608
	bfxil	w11, w8, #0, #23
	sub	w10, w10, #81
	lsl	w10, w11, w10
	cmp	w10, #0
	cset	w10, ne
	lsr	w9, w11, w9
	lsr	w11, w9, #13
	and	w12, w9, #0x1fff
	orr	w10, w12, w10
	ubfx	w9, w9, #13, #1
	add	w9, w9, w11
	cmp	w10, #1, lsl #12
	csel	w9, w11, w9, ne
	cmp	w10, #1, lsl #12
	csinc	w9, w9, w11, ls
	lsr	w8, w8, #31
	orr	w0, w9, w8, lsl #15
	ret
Lfunc_end2:
	.cfi_endproc

	.globl	___extendhfsf2
	.weak_definition	___extendhfsf2
	.p2align	2
___extendhfsf2:
Lfunc_begin3:
	.cfi_startproc
	and	w8, w0, #0xffff
	and	w9, w0, #0x7fff
	sub	w10, w9, #1024
	lsr	w10, w10, #11
	cmp	w10, #14
	b.hi	LBB3_3
	mov	w10, #939524096
	add	w9, w10, w9, lsl #13
LBB3_2:
	and	w8, w8, #0x8000
	orr	w8, w9, w8, lsl #16
	fmov	s0, w8
	ret
LBB3_3:
	lsr	w10, w9, #10
	cmp	w10, #31
	b.lo	LBB3_5
	lsl	w9, w9, #13
	orr	w9, w9, #0x7f800000
	and	w8, w8, #0x8000
	orr	w8, w9, w8, lsl #16
	fmov	s0, w8
	ret
LBB3_5:
	cbz	w9, LBB3_2
	lsr	w10, w9, #8
	cmp	w9, #256
	csel	w10, w9, w10, lo
	mov	w11, #24
	mov	w12, #32
	csel	w11, w12, w11, lo
	lsr	w12, w10, #4
	sub	w13, w11, #4
	cmp	w10, #16
	csel	w10, w10, w12, lo
	csel	w11, w11, w13, lo
	lsr	w12, w10, #2
	sub	w13, w11, #2
	cmp	w10, #4
	csel	w10, w10, w12, lo
	csel	w11, w11, w13, lo
	cmp	w10, #2
	mov	w12, #-2
	csneg	w10, w12, w10, hs
	add	w10, w10, w11
	sub	w11, w10, #8
	lsl	w9, w9, w11
	eor	w9, w9, #0x800000
	mov	w11, #1124073472
	sub	w10, w11, w10, lsl #23
	orr	w9, w9, w10
	and	w8, w8, #0x8000
	orr	w8, w9, w8, lsl #16
	fmov	s0, w8
	ret
Lfunc_end3:
	.cfi_endproc

	.section	__DATA,__data
	.globl	___TVMAPISetLastError
	.weak_definition	___TVMAPISetLastError
	.p2align	3, 0x0
___TVMAPISetLastError:
	.quad	0

	.section	__TEXT,__const
l_.str:
	.asciz	"Assert fail: num_args == 4, preprocessor_t4_int8_m6400_k3200_n1_b2: num_args should be 4"

l_.str.1:
	.asciz	"Assert fail: not T.isnullptr(args), preprocessor_t4_int8_m6400_k3200_n1_b2: TVMValue* arg pointer was NULL"

l_.str.2:
	.asciz	"Assert fail: not T.isnullptr(arg_type_ids), preprocessor_t4_int8_m6400_k3200_n1_b2: int* type_codes was NULL"

l_.str.3:
	.asciz	"Assert fail: B_code == 3 or B_code == 13 or B_code == 7 or B_code == 4, preprocessor_t4_int8_m6400_k3200_n1_b2: Expect arg[0] to be pointer"

l_.str.4:
	.asciz	"Assert fail: LUT_Scales_code == 3 or LUT_Scales_code == 13 or LUT_Scales_code == 7 or LUT_Scales_code == 4, preprocessor_t4_int8_m6400_k3200_n1_b2: Expect arg[1] to be pointer"

l_.str.5:
	.asciz	"Assert fail: LUT_Biases_code == 3 or LUT_Biases_code == 13 or LUT_Biases_code == 7 or LUT_Biases_code == 4, preprocessor_t4_int8_m6400_k3200_n1_b2: Expect arg[2] to be pointer"

l_.str.6:
	.asciz	"Assert fail: QLUT_code == 3 or QLUT_code == 13 or QLUT_code == 7 or QLUT_code == 4, preprocessor_t4_int8_m6400_k3200_n1_b2: Expect arg[3] to be pointer"

l_.str.7:
	.asciz	"Assert fail: not T.isnullptr(B), preprocessor_t4_int8_m6400_k3200_n1_b2.B is expected to have non-NULL DLTensor* pointer"

l_.str.8:
	.asciz	"Assert fail: 2 == T.tvm_struct_get(B, 0, 4, \"int32\"), preprocessor_t4_int8_m6400_k3200_n1_b2.B.ndim is expected to equal 2"

l_.str.9:
	.asciz	"Assert fail: not T.isnullptr(LUT_Scales), preprocessor_t4_int8_m6400_k3200_n1_b2.LUT_Scales is expected to have non-NULL DLTensor* pointer"

l_.str.10:
	.asciz	"Assert fail: 2 == T.tvm_struct_get(LUT_Scales, 0, 4, \"int32\"), preprocessor_t4_int8_m6400_k3200_n1_b2.LUT_Scales.ndim is expected to equal 2"

l_.str.11:
	.asciz	"Assert fail: not T.isnullptr(LUT_Biases), preprocessor_t4_int8_m6400_k3200_n1_b2.LUT_Biases is expected to have non-NULL DLTensor* pointer"

l_.str.12:
	.asciz	"Assert fail: 2 == T.tvm_struct_get(LUT_Biases, 0, 4, \"int32\"), preprocessor_t4_int8_m6400_k3200_n1_b2.LUT_Biases.ndim is expected to equal 2"

l_.str.13:
	.asciz	"Assert fail: not T.isnullptr(QLUT), preprocessor_t4_int8_m6400_k3200_n1_b2.QLUT is expected to have non-NULL DLTensor* pointer"

l_.str.14:
	.asciz	"Assert fail: 3 == T.tvm_struct_get(QLUT, 0, 4, \"int32\"), preprocessor_t4_int8_m6400_k3200_n1_b2.QLUT.ndim is expected to equal 3"

l_.str.15:
	.asciz	"Assert fail: T.tvm_struct_get(B, 0, 5, \"uint8\") == T.uint8(2) and T.tvm_struct_get(B, 0, 6, \"uint8\") == T.uint8(16) and T.tvm_struct_get(B, 0, 7, \"uint16\") == T.uint16(1), preprocessor_t4_int8_m6400_k3200_n1_b2.B.dtype is expected to be float16"

l_.str.16:
	.asciz	"Assert fail: T.Cast(\"int32\", preprocessor_t4_int8_m6400_k3200_n1_b2_B_shape[0]) == 1, Argument preprocessor_t4_int8_m6400_k3200_n1_b2.B.shape[0] has an unsatisfied constraint: 1 == T.Cast(\"int32\", preprocessor_t4_int8_m6400_k3200_n1_b2_B_shape[0])"

l_.str.17:
	.asciz	"Assert fail: T.Cast(\"int32\", preprocessor_t4_int8_m6400_k3200_n1_b2_B_shape[1]) == 3200, Argument preprocessor_t4_int8_m6400_k3200_n1_b2.B.shape[1] has an unsatisfied constraint: 3200 == T.Cast(\"int32\", preprocessor_t4_int8_m6400_k3200_n1_b2_B_shape[1])"

l_.str.18:
	.asciz	"Assert fail: 1 == T.Cast(\"int32\", preprocessor_t4_int8_m6400_k3200_n1_b2_B_strides[1]), preprocessor_t4_int8_m6400_k3200_n1_b2.B.strides: expected to be compact array"

l_.str.19:
	.asciz	"Assert fail: T.uint64(0) == T.tvm_struct_get(B, 0, 8, \"uint64\"), Argument preprocessor_t4_int8_m6400_k3200_n1_b2.B.byte_offset has an unsatisfied constraint: T.uint64(0) == T.tvm_struct_get(B, 0, 8, \"uint64\")"

l_.str.20:
	.asciz	"Assert fail: T.tvm_struct_get(B, 0, 10, \"int32\") == 1, Argument preprocessor_t4_int8_m6400_k3200_n1_b2.B.device_type has an unsatisfied constraint: 1 == T.tvm_struct_get(B, 0, 10, \"int32\")"

l_.str.21:
	.asciz	"Assert fail: not T.isnullptr(B), preprocessor_t4_int8_m6400_k3200_n1_b2.B is expected to have non-NULL data pointer"

l_.str.22:
	.asciz	"Assert fail: T.tvm_struct_get(LUT_Scales, 0, 5, \"uint8\") == T.uint8(2) and T.tvm_struct_get(LUT_Scales, 0, 6, \"uint8\") == T.uint8(16) and T.tvm_struct_get(LUT_Scales, 0, 7, \"uint16\") == T.uint16(1), preprocessor_t4_int8_m6400_k3200_n1_b2.LUT_Scales.dtype is expected to be float16"

l_.str.23:
	.asciz	"Assert fail: T.Cast(\"int32\", preprocessor_t4_int8_m6400_k3200_n1_b2_LUT_Scales_shape[0]) == 1, Argument preprocessor_t4_int8_m6400_k3200_n1_b2.LUT_Scales.shape[0] has an unsatisfied constraint: 1 == T.Cast(\"int32\", preprocessor_t4_int8_m6400_k3200_n1_b2_LUT_Scales_shape[0])"

l_.str.24:
	.asciz	"Assert fail: T.Cast(\"int32\", preprocessor_t4_int8_m6400_k3200_n1_b2_LUT_Scales_shape[1]) == 50, Argument preprocessor_t4_int8_m6400_k3200_n1_b2.LUT_Scales.shape[1] has an unsatisfied constraint: 50 == T.Cast(\"int32\", preprocessor_t4_int8_m6400_k3200_n1_b2_LUT_Scales_shape[1])"

l_.str.25:
	.asciz	"Assert fail: 1 == T.Cast(\"int32\", preprocessor_t4_int8_m6400_k3200_n1_b2_LUT_Scales_strides[1]), preprocessor_t4_int8_m6400_k3200_n1_b2.LUT_Scales.strides: expected to be compact array"

l_.str.26:
	.asciz	"Assert fail: T.uint64(0) == T.tvm_struct_get(LUT_Scales, 0, 8, \"uint64\"), Argument preprocessor_t4_int8_m6400_k3200_n1_b2.LUT_Scales.byte_offset has an unsatisfied constraint: T.uint64(0) == T.tvm_struct_get(LUT_Scales, 0, 8, \"uint64\")"

l_.str.27:
	.asciz	"Assert fail: T.tvm_struct_get(LUT_Scales, 0, 10, \"int32\") == 1, Argument preprocessor_t4_int8_m6400_k3200_n1_b2.LUT_Scales.device_type has an unsatisfied constraint: 1 == T.tvm_struct_get(LUT_Scales, 0, 10, \"int32\")"

l_.str.28:
	.asciz	"Assert fail: dev_id == T.tvm_struct_get(LUT_Scales, 0, 9, \"int32\"), Argument preprocessor_t4_int8_m6400_k3200_n1_b2.LUT_Scales.device_id has an unsatisfied constraint: dev_id == T.tvm_struct_get(LUT_Scales, 0, 9, \"int32\")"

l_.str.29:
	.asciz	"Assert fail: not T.isnullptr(LUT_Scales), preprocessor_t4_int8_m6400_k3200_n1_b2.LUT_Scales is expected to have non-NULL data pointer"

l_.str.30:
	.asciz	"Assert fail: T.tvm_struct_get(LUT_Biases, 0, 5, \"uint8\") == T.uint8(2) and T.tvm_struct_get(LUT_Biases, 0, 6, \"uint8\") == T.uint8(16) and T.tvm_struct_get(LUT_Biases, 0, 7, \"uint16\") == T.uint16(1), preprocessor_t4_int8_m6400_k3200_n1_b2.LUT_Biases.dtype is expected to be float16"

l_.str.31:
	.asciz	"Assert fail: T.Cast(\"int32\", preprocessor_t4_int8_m6400_k3200_n1_b2_LUT_Biases_shape[0]) == 1, Argument preprocessor_t4_int8_m6400_k3200_n1_b2.LUT_Biases.shape[0] has an unsatisfied constraint: 1 == T.Cast(\"int32\", preprocessor_t4_int8_m6400_k3200_n1_b2_LUT_Biases_shape[0])"

l_.str.32:
	.asciz	"Assert fail: T.Cast(\"int32\", preprocessor_t4_int8_m6400_k3200_n1_b2_LUT_Biases_shape[1]) == 50, Argument preprocessor_t4_int8_m6400_k3200_n1_b2.LUT_Biases.shape[1] has an unsatisfied constraint: 50 == T.Cast(\"int32\", preprocessor_t4_int8_m6400_k3200_n1_b2_LUT_Biases_shape[1])"

l_.str.33:
	.asciz	"Assert fail: 1 == T.Cast(\"int32\", preprocessor_t4_int8_m6400_k3200_n1_b2_LUT_Biases_strides[1]), preprocessor_t4_int8_m6400_k3200_n1_b2.LUT_Biases.strides: expected to be compact array"

l_.str.34:
	.asciz	"Assert fail: T.uint64(0) == T.tvm_struct_get(LUT_Biases, 0, 8, \"uint64\"), Argument preprocessor_t4_int8_m6400_k3200_n1_b2.LUT_Biases.byte_offset has an unsatisfied constraint: T.uint64(0) == T.tvm_struct_get(LUT_Biases, 0, 8, \"uint64\")"

l_.str.35:
	.asciz	"Assert fail: T.tvm_struct_get(LUT_Biases, 0, 10, \"int32\") == 1, Argument preprocessor_t4_int8_m6400_k3200_n1_b2.LUT_Biases.device_type has an unsatisfied constraint: 1 == T.tvm_struct_get(LUT_Biases, 0, 10, \"int32\")"

l_.str.36:
	.asciz	"Assert fail: dev_id == T.tvm_struct_get(LUT_Biases, 0, 9, \"int32\"), Argument preprocessor_t4_int8_m6400_k3200_n1_b2.LUT_Biases.device_id has an unsatisfied constraint: dev_id == T.tvm_struct_get(LUT_Biases, 0, 9, \"int32\")"

l_.str.37:
	.asciz	"Assert fail: not T.isnullptr(LUT_Biases), preprocessor_t4_int8_m6400_k3200_n1_b2.LUT_Biases is expected to have non-NULL data pointer"

l_.str.38:
	.asciz	"Assert fail: T.tvm_struct_get(QLUT, 0, 5, \"uint8\") == T.uint8(0) and T.tvm_struct_get(QLUT, 0, 6, \"uint8\") == T.uint8(8) and T.tvm_struct_get(QLUT, 0, 7, \"uint16\") == T.uint16(1), preprocessor_t4_int8_m6400_k3200_n1_b2.QLUT.dtype is expected to be int8"

l_.str.39:
	.asciz	"Assert fail: T.Cast(\"int32\", preprocessor_t4_int8_m6400_k3200_n1_b2_QLUT_shape[0]) == 1, Argument preprocessor_t4_int8_m6400_k3200_n1_b2.QLUT.shape[0] has an unsatisfied constraint: 1 == T.Cast(\"int32\", preprocessor_t4_int8_m6400_k3200_n1_b2_QLUT_shape[0])"

l_.str.40:
	.asciz	"Assert fail: T.Cast(\"int32\", preprocessor_t4_int8_m6400_k3200_n1_b2_QLUT_shape[1]) == 800, Argument preprocessor_t4_int8_m6400_k3200_n1_b2.QLUT.shape[1] has an unsatisfied constraint: 800 == T.Cast(\"int32\", preprocessor_t4_int8_m6400_k3200_n1_b2_QLUT_shape[1])"

l_.str.41:
	.asciz	"Assert fail: T.Cast(\"int32\", preprocessor_t4_int8_m6400_k3200_n1_b2_QLUT_shape[2]) == 16, Argument preprocessor_t4_int8_m6400_k3200_n1_b2.QLUT.shape[2] has an unsatisfied constraint: 16 == T.Cast(\"int32\", preprocessor_t4_int8_m6400_k3200_n1_b2_QLUT_shape[2])"

l_.str.42:
	.asciz	"Assert fail: 1 == T.Cast(\"int32\", preprocessor_t4_int8_m6400_k3200_n1_b2_QLUT_strides[2]) and 16 == T.Cast(\"int32\", preprocessor_t4_int8_m6400_k3200_n1_b2_QLUT_strides[1]), preprocessor_t4_int8_m6400_k3200_n1_b2.QLUT.strides: expected to be compact array"

l_.str.43:
	.asciz	"Assert fail: T.uint64(0) == T.tvm_struct_get(QLUT, 0, 8, \"uint64\"), Argument preprocessor_t4_int8_m6400_k3200_n1_b2.QLUT.byte_offset has an unsatisfied constraint: T.uint64(0) == T.tvm_struct_get(QLUT, 0, 8, \"uint64\")"

l_.str.44:
	.asciz	"Assert fail: T.tvm_struct_get(QLUT, 0, 10, \"int32\") == 1, Argument preprocessor_t4_int8_m6400_k3200_n1_b2.QLUT.device_type has an unsatisfied constraint: 1 == T.tvm_struct_get(QLUT, 0, 10, \"int32\")"

l_.str.45:
	.asciz	"Assert fail: dev_id == T.tvm_struct_get(QLUT, 0, 9, \"int32\"), Argument preprocessor_t4_int8_m6400_k3200_n1_b2.QLUT.device_id has an unsatisfied constraint: dev_id == T.tvm_struct_get(QLUT, 0, 9, \"int32\")"

l_.str.46:
	.asciz	"Assert fail: not T.isnullptr(QLUT), preprocessor_t4_int8_m6400_k3200_n1_b2.QLUT is expected to have non-NULL data pointer"

	.globl	___tvm_main__
	.weak_definition	___tvm_main__
___tvm_main__:
	.asciz	"preprocessor_t4_int8_m6400_k3200_n1_b2"
